(dp0
S'BLOEMAERT, Abraham'
p1
I281
sS'ASSELYN, Jan'
p2
I306
sS'PARMIGIANINO'
p3
I158
sS'UNKNOWN ICON PAINTER, Russian'
p4
I179
sS'LUINI, Bernardino'
p5
I123
sS'DELACROIX, Eug?ne'
p6
I65
sS'LIPPI, Fra Filippo'
p7
I40
sS'LORENZO VENEZIANO'
p8
I234
sS'SIMONE MARTINI'
p9
I44
sS'HELST, Bartholomeus van der'
p10
I339
sS'EECKHOUT, Gerbrand van den'
p11
I214
sS'PAOLO VENEZIANO'
p12
I182
sS'VEL\xc1ZQUEZ, Diego Rodriguez de Silva y'
p13
I34
sS'CORTONA, Pietro da'
p14
I82
sS'VLIEGER, Simon de'
p15
I317
sS'ANTONELLO da Messina'
p16
I244
sS'STEEN, Jan'
p17
I63
sS'CLAUDE LORRAIN'
p18
I64
sS'FALCONETTO, Giovanni Maria'
p19
I287
sS'RICCI, Sebastiano'
p20
I61
sS'NETSCHER, Caspar'
p21
I314
sS'PIERO DI COSIMO'
p22
I147
sS'METSU, Gabriel'
p23
I163
sS'BRIL, Paul'
p24
I258
sS'GOYA Y LUCIENTES, Francisco de'
p25
I16
sS'BRUEGHEL, Pieter the Younger'
p26
I111
sS'BRONZINO, Agnolo'
p27
I50
sS'CRESPI, Giuseppe Maria'
p28
I131
sS'MANET, Edouard'
p29
I46
sS'GIULIO ROMANO'
p30
I59
sS'BRUEGHEL, Jan the Younger'
p31
I259
sS'ROBERT, Hubert'
p32
I125
sS'CARRE?O DE MIRANDA, Juan'
p33
I315
sS'BRAY, Jan de'
p34
I255
sS'GIORGIONE'
p35
I117
sS'WRIGHT, Joseph'
p36
I230
sS'ROSSO FIORENTINO'
p37
I189
sS'VERONESE, Paolo'
p38
I6
sS'ZURBAR\xc1N, Francisco de'
p39
I89
sS'DORIGNY, Louis'
p40
I114
sS'BASSANO, Francesco'
p41
I335
sS'CIMA da Conegliano'
p42
I170
sS'PIERO DELLA FRANCESCA'
p43
I33
sS'UGOLINO DI NERIO'
p44
I208
sS'JACOPO DI CIONE'
p45
I142
sS'GIOTTO di Bondone'
p46
I2
sS'SODOMA, Il'
p47
I110
sS'FRAGONARD, Jean-Honor\xe9'
p48
I69
sS'BERCHEM, Nicolaes'
p49
I180
sS'VALENTIN DE BOULOGNE'
p50
I176
sS'CARRACCI, Lodovico'
p51
I256
sS'POURBUS, Frans the Younger'
p52
I213
sS'GOES, Hugo van der'
p53
I159
sS'DOSSI, Dosso'
p54
I167
sS"GIUSTO de' Menabuoi"
p55
I257
sS'ARCIMBOLDO, Giuseppe'
p56
I75
sS'LAIRESSE, G\xe9rard de'
p57
I336
sS'RAFFAELLO Sanzio'
p58
I7
sS'BATONI, Pompeo'
p59
I181
sS'VOUET, Simon'
p60
I121
sS'MASTER of Fl\xe9malle'
p61
I150
sS'MICHELANGELO Buonarroti'
p62
I14
sS'CERUTI, Giacomo'
p63
I231
sS'EVERDINGEN, Caesar van'
p64
I260
sS'TOULOUSE-LAUTREC, Henri de'
p65
I20
sS'MASOLINO da Panicale'
p66
I81
sS'PITTONI, Giambattista'
p67
I301
sS'COROT, Jean-Baptiste Camille'
p68
I204
sS'SUSTERMANS, Justus'
p69
I325
sS'LAZZARINI, Gregorio'
p70
I316
sS'MORONI, Giovanni Battista'
p71
I245
sS'OSTADE, Adriaen Jansz. van'
p72
I128
sS'LE NAIN brothers'
p73
I205
sS'GREUZE, Jean-Baptiste'
p74
I106
sS'MOR VAN DASHORST, Anthonis'
p75
I282
sS'STROZZI, Bernardo'
p76
I129
sS'SALVIATI, Cecchino del'
p77
I112
sS'SAENREDAM, Pieter Jansz'
p78
I326
sS'SCOREL, Jan van'
p79
I307
sS'GIOVANNI DA MILANO'
p80
I177
sS'UNKNOWN MASTER, Netherlandish'
p81
I278
sS'POTTER, Paulus'
p82
I221
sS'PROCACCINI, Giulio Cesare'
p83
I337
sS'CARPACCIO, Vittore'
p84
I54
sS'GENTILE DA FABRIANO'
p85
I146
sS'SEBASTIANO DEL PIOMBO'
p86
I148
sS'LORENZETTI, Pietro'
p87
I77
sS'CIMABUE'
p88
I219
sS'PINTURICCHIO'
p89
I73
sS'GADDI, Taddeo'
p90
I113
sS'POELENBURGH, Cornelis van'
p91
I266
sS'CARAVAGGIO'
p92
I24
sS'VASARI, Giorgio'
p93
I88
sS'EYCK, Jan van'
p94
I48
sS'PELLEGRINI, Giovanni Antonio'
p95
I164
sS'WEENIX, Jan'
p96
I215
sS'LAWRENCE, Sir Thomas'
p97
I232
sS'LIPPI, Filippino'
p98
I53
sS'C\xc9ZANNE, Paul'
p99
I32
sS'CARLEVARIS, Luca'
p100
I297
sS'WATTEAU, Jean-Antoine'
p101
I85
sS'TIBALDI, Pellegrino'
p102
I235
sS'DOMENICHINO'
p103
I67
sS'DUJARDIN, Karel'
p104
I273
sS'UNKNOWN MASTER, Italian'
p105
I12
sS'LINGELBACH, Johannes'
p106
I338
sS'COSTA, Lorenzo the Elder'
p107
I206
sS'MANTEGNA, Andrea'
p108
I15
sS'BACCHIACCA'
p109
I341
sS'GADDI, Agnolo'
p110
I261
sS'ROMANESQUE PAINTER, French'
p111
I160
sS'CONSTABLE, John'
p112
I267
sS'ANGELI, Giuseppe'
p113
I327
sS'MIERIS, Frans van, the Elder'
p114
I274
sS'OUDRY, Jean-Baptiste'
p115
I291
sS'LANCRET, Nicolas'
p116
I190
sS'ANDREA DEL CASTAGNO'
p117
I86
sS'INGRES, Jean-Auguste-Dominique'
p118
I135
sS'MUNK\xc1CSY, Mih\xe1ly'
p119
I300
sS'LIEVENS, Jan'
p120
I197
sS"ROBERTI, Ercole de'"
p121
I302
sS'RUISDAEL, Jacob Isaackszon van'
p122
I72
sS'BERCKHEYDE, Gerrit Adriaensz.'
p123
I286
sS'SASSETTA'
p124
I183
sS'RENOIR, Pierre-Auguste'
p125
I56
sS'CARRACCI, Annibale'
p126
I47
sS'BARTOLOMEO, Fra'
p127
I222
sS'PIAZZETTA, Giovanni Battista'
p128
I172
sS'PALMA GIOVANE'
p129
I93
sS'HAYEZ, Francesco'
p130
I269
sS'COLLIER, Edwart'
p131
I313
sS'PANNINI, Giovanni Paolo'
p132
I154
sS'BOUCHER, Fran\xe7ois'
p133
I58
sS'LANFRANCO, Giovanni'
p134
I151
sS'MOLENAER, Jan Miense'
p135
I196
sS'SNYDERS, Frans'
p136
I115
sS'FETTI, Domenico'
p137
I198
sS'GUARDI, Francesco'
p138
I49
sS'MARIESCHI, Michele'
p139
I303
sS'SISLEY, Alfred'
p140
I223
sS'POUSSIN, Nicolas'
p141
I23
sS'ROMANESQUE PAINTER, German'
p142
I251
sS'PERRONNEAU, Jean-Baptiste'
p143
I340
sS'PATER, Jean Baptiste Joseph'
p144
I262
sS'GIAQUINTO, Corrado'
p145
I318
sS'DOLCI, Carlo'
p146
I275
sS'ALTDORFER, Albrecht'
p147
I136
sS'DYCK, Sir Anthony van'
p148
I41
sS'RICCI, Marco'
p149
I296
sS'ALTICHIERO da Zevio'
p150
I188
sS'MURILLO, Bartolom\xe9 Esteban'
p151
I74
sS'GUERCINO'
p152
I68
sS'WEYDEN, Rogier van der'
p153
I21
sS'PRETI, Mattia'
p154
I134
sS'BOURDON, S\xe9bastien'
p155
I252
sS'CRANACH, Lucas the Younger'
p156
I157
sS'ROBUSTI, Domenico'
p157
I342
sS'FONTANA, Lavinia'
p158
I199
sS'GUIDO DA SIENA'
p159
I253
sS'BALDUNG GRIEN, Hans'
p160
I119
sS'BRUEGHEL, Jan the Elder'
p161
I55
sS'VERMEER, Johannes'
p162
I71
sS'JORDAENS, Jacob'
p163
I108
sS'VIG\xc9E-LEBRUN, \xc9lisabeth'
p164
I263
sS'FOPPA, Vincenzo'
p165
I207
sS'CUYP, Aelbert'
p166
I126
sS'VIVARINI, Bartolomeo'
p167
I153
sS'TERBORCH, Gerard'
p168
I79
sS'GALIZIA, Fede'
p169
I319
sS'MASTER of Moulins'
p170
I304
sS'BONIFACIO VERONESE'
p171
I308
sS'GOYEN, Jan van'
p172
I87
sS'GAINSBOROUGH, Thomas'
p173
I173
sS'HEDA, Willem Claesz.'
p174
I226
sS'ANDREA DA FIRENZE'
p175
I254
sS'BEUCKELAER, Joachim'
p176
I292
sS'POZZO, Andrea'
p177
I174
sS'GREBBER, Pieter de'
p178
I276
sS'RUBENS, Peter Paul'
p179
I3
sS'TURA, Cosm?'
p180
I120
sS'UNKNOWN MASTER, Flemish'
p181
I37
sS'PONTORMO, Jacopo'
p182
I83
sS'FERENCZY, K\xe1roly'
p183
I241
sS'VERNET, Horace'
p184
I185
sS'MASTER of the Legend of Saint Ursula (I)'
p185
I328
sS'MEMLING, Hans'
p186
I13
sS'LORENZETTI, Ambrogio'
p187
I155
sS'RUYSCH, Rachel'
p188
I293
sS'UNK'
p189
I349
sS'CHAMPAIGNE, Philippe de'
p190
I165
sS'MAGNASCO, Alessandro'
p191
I246
sS'GEERTGEN tot Sint Jans'
p192
I290
sS'VELDE, Willem van de, the Younger'
p193
I152
sS'MAES, Nicolaes'
p194
I102
sS'DAVID, Gerard'
p195
I97
sS'DEGAS, Edgar'
p196
I42
sS'MARATTI, Carlo'
p197
I236
sS'BECCAFUMI, Domenico'
p198
I103
sS'BOTTICELLI, Sandro'
p199
I19
sS'SANO di Pietro'
p200
I169
sS'MELOZZO DA FORLI'
p201
I310
sS'FRANCESCO DI GIORGIO MARTINI'
p202
I191
sS'ZAVATTARI, Franceschino'
p203
I268
sS'REYNOLDS, Sir Joshua'
p204
I145
sS'GOGH, Vincent van'
p205
I0
sS'ROMANESQUE PAINTER, Italian'
p206
I107
sS'TURNER, Joseph Mallord William'
p207
I216
sS'MILLET, Jean-Fran\xe7ois'
p208
I329
sS'MONET, Claude'
p209
I18
sS'PALAMEDESZ., Anthonie'
p210
I343
sS'HOOCH, Pieter de'
p211
I95
sS'PERUGINO, Pietro'
p212
I39
sS'UNKNOWN MASTER, French'
p213
I137
sS'BELLOTTO, Bernardo'
p214
I104
sS'RIBERA, Jusepe de'
p215
I96
sS'G\xc9RICAULT, Th\xe9odore'
p216
I294
sS'MEMMI, Lippo'
p217
I200
sS'HEYDEN, Jan van der'
p218
I237
sS'HALS, Frans'
p219
I43
sS'PISSARRO, Camille'
p220
I143
sS'FLINCK, Govert Teunisz.'
p221
I220
sS'KEYSER, Thomas de'
p222
I247
sS'ORLEY, Bernaert van'
p223
I264
sS'SUSTRIS, Lambert'
p224
I311
sS'RENI, Guido'
p225
I66
sS'MOMPER, Joos de'
p226
I210
sS'LEYDEN, Lucas van'
p227
I285
sS'MASACCIO'
p228
I124
sS'WTEWAEL, Joachim'
p229
I330
sS'HOLBEIN, Hans the Younger'
p230
I30
sS'BELLINI, Jacopo'
p231
I347
sS'SAVERY, Roelandt'
p232
I224
sS'PALMA VECCHIO'
p233
I248
sS'HEEMSKERCK, Maerten van'
p234
I162
sS'DUCCIO di Buoninsegna'
p235
I22
sS'BOILLY, Louis L\xe9opold'
p236
I309
sS'GOZZOLI, Benozzo'
p237
I25
sS'DOMENICO VENEZIANO'
p238
I344
sS'HOOGSTRATEN, Samuel van'
p239
I331
sS'SIGNORELLI, Luca'
p240
I45
sS'MENZEL, Adolph von'
p241
I272
sS'UNKNOWN MASTER, German'
p242
I38
sS'BACICCIO'
p243
I288
sS'BOL, Ferdinand'
p244
I305
sS'AST, Balthasar van der'
p245
I249
sS'LE BRUN, Charles'
p246
I233
sS'PORDENONE'
p247
I298
sS'NATTIER, Jean-Marc'
p248
I202
sS'VERNET, Claude-Joseph'
p249
I100
sS'MARIOTTO DI NARDO'
p250
I184
sS'WOUWERMAN, Philips'
p251
I168
sS'MURA, Francesco de'
p252
I193
sS'CESARI, Giuseppe'
p253
I211
sS'FASOLO, Giovanni Antonio'
p254
I332
sS'CRIVELLI, Carlo'
p255
I133
sS'MASSYS, Quentin'
p256
I122
sS'ZELOTTI, Giovanni Battista'
p257
I187
sS'CARRIERA, Rosalba'
p258
I132
sS'GUARDI, Gianantonio'
p259
I238
sS'UNKNOWN MASTER, Spanish'
p260
I212
sS'TENIERS, David the Younger'
p261
I70
sS'RUYSDAEL, Salomon van'
p262
I109
sS'BAROCCI, Federico Fiori'
p263
I239
sS'BRUEGEL, Pieter the Elder'
p264
I76
sS'LA TOUR, Georges de'
p265
I171
sS'TIEPOLO, Giovanni Battista'
p266
I10
sS'CLEVE, Joos van'
p267
I225
sS'VENNE, Adriaen Pietersz. van de'
p268
I240
sS'ELSHEIMER, Adam'
p269
I271
sS'WITTEL, Caspar Andriaans van'
p270
I144
sS'GIRODET DE ROUCY-TRIOSON, Anne-Louis'
p271
I320
sS'LEONARDO da Vinci'
p272
I91
sS'PATENIER, Joachim'
p273
I277
sS'SOLIMENA, Francesco'
p274
I139
sS'PACHER, Michael'
p275
I161
sS'ROSA, Salvator'
p276
I141
sS'LONGHI, Pietro'
p277
I99
sS'REMBRANDT Harmenszoon van Rijn'
p278
I1
sS'KESSEL, Jan van, I'
p279
I116
sS'VELDE, Esaias van de'
p280
I333
sS'ANGELICO, Fra'
p281
I11
sS'GIORDANO, Luca'
p282
I60
sS'MENGS, Anton Raphael'
p283
I284
sS'LORENZO Monaco'
p284
I90
sS'TERBRUGGHEN, Hendrick'
p285
I209
sS'TINTORETTO'
p286
I8
sS'TIZIANO Vecellio'
p287
I4
sS'DAVID, Jacques-Louis'
p288
I57
sS'BERRUGUETE, Pedro'
p289
I265
sS'COURBET, Gustave'
p290
I51
sS'CLAESZ., Pieter'
p291
I166
sS'TIEPOLO, Giovanni Domenico'
p292
I52
sS'FRANCKEN, Frans II'
p293
I250
sS'BELLINI, Giovanni'
p294
I17
sS'MORETTO da Brescia'
p295
I192
sS'FRIEDRICH, Caspar David'
p296
I62
sS'AELST, Willem van'
p297
I217
sS'BOUTS, Dieric the Elder'
p298
I92
sS'HOBBEMA, Meyndert'
p299
I140
sS'PROVOST, Jan'
p300
I345
sS'DOU, Gerrit'
p301
I98
sS'CHRISTUS, Petrus'
p302
I201
sS'NEER, Aert van der'
p303
I218
sS'CORNELIS VAN HAARLEM'
p304
I289
sS'JUAN DE FLANDES'
p305
I175
sS'SARACENI, Carlo'
p306
I324
sS'UCCELLO, Paolo'
p307
I84
sS'MIEREVELD, Michiel Jansz. van'
p308
I346
sS'GRECO, El'
p309
I5
sS'BEYEREN, Abraham van'
p310
I321
sS'BOSCH, Hieronymus'
p311
I36
sS'GR\xdcNEWALD, Matthias'
p312
I178
sS'KALF, Willem'
p313
I279
sS'AERTSEN, Pieter'
p314
I242
sS'CANALETTO'
p315
I27
sS'ALBANI, Francesco'
p316
I194
sS'BASSANO, Jacopo'
p317
I130
sS'FYT, Jan'
p318
I203
sS'HONTHORST, Gerrit van'
p319
I105
sS'WITTE, Emanuel de'
p320
I149
sS'CRANACH, Lucas the Elder'
p321
I9
sS'GENTILESCHI, Artemisia'
p322
I227
sS'ANDREA DEL SARTO'
p323
I78
sS'GHIRLANDAIO, Domenico'
p324
I31
sS'DADDI, Bernardo'
p325
I138
sS'D\xdcRER, Albrecht'
p326
I29
sS'LA HIRE, Laurent de'
p327
I283
sS'BLECHEN, Karl'
p328
I295
sS'GOSSART, Jan'
p329
I35
sS'MORALES, Luis de'
p330
I322
sS'CODDE, Pieter'
p331
I348
sS'FERRARI, Gaudenzio'
p332
I156
sS'GENTILESCHI, Orazio'
p333
I186
sS'CHARDIN, Jean-Baptiste-Sim\xe9on'
p334
I80
sS'BORDONE, Paris'
p335
I228
sS'LOTTO, Lorenzo'
p336
I26
sS'GAUGUIN, Paul'
p337
I28
sS'MIGNARD, Pierre'
p338
I323
sS'ALLORI, Alessandro'
p339
I229
sS'FRANCIA, Francesco'
p340
I243
sS'GRIMMER, Abel'
p341
I334
sS'LARGILLI?RE, Nicolas de'
p342
I299
sS'CORREGGIO'
p343
I101
sS'BROUWER, Adriaen'
p344
I280
sS'COSSA, Francesco del'
p345
I270
sS'MOILLON, Louise'
p346
I312
sS'SPINELLO ARETINO'
p347
I94
sS'GIOVANNI DI PAOLO'
p348
I127
sS'HEEM, Jan Davidsz. de'
p349
I118
sS'SEURAT, Georges'
p350
I195
s.