(dp0
S'Swedish'
p1
I19
sS'Other'
p2
I20
sS'Dutch'
p3
I1
sS'Polish'
p4
I23
sS'Belgian'
p5
I15
sS'Danish'
p6
I11
sS'Hungarian'
p7
I9
sS'Norwegian'
p8
I22
sS'Netherlandish'
p9
I7
sS'French'
p10
I2
sS'Catalan'
p11
I17
sS'Russian'
p12
I13
sS'Spanish'
p13
I5
sS'Greek'
p14
I16
sS'American'
p15
I10
sS'Bohemian'
p16
I18
sS'English'
p17
I6
sS'Swiss'
p18
I12
sS'UNK'
p19
I24
sS'Italian'
p20
I0
sS'Irish'
p21
I21
sS'Flemish'
p22
I3
sS'German'
p23
I4
sS'Scottish'
p24
I14
sS'Austrian'
p25
I8
s.