(dp0
S'1301-1350'
p1
I10
sS'1401-1450'
p2
I9
sS'1501-1550'
p3
I1
sS'1251-1300'
p4
I12
sS'1451-1500'
p5
I3
sS'1151-1200'
p6
I15
sS'1551-1600'
p7
I5
sS'1201-1250'
p8
I13
sS'1651-1700'
p9
I2
sS'1701-1750'
p10
I6
sS'1351-1400'
p11
I11
sS'1801-1850'
p12
I8
sS'1751-1800'
p13
I7
sS'1051-1100'
p14
I14
sS'UNK'
p15
I17
sS'1101-1150'
p16
I16
sS'1851-1900'
p17
I4
sS'1601-1650'
p18
I0
s.