(dp0
S'mythological'
p1
I3
sS'interior'
p2
I8
sS'other'
p3
I7
sS'historical'
p4
I6
sS'genre'
p5
I4
sS'portrait'
p6
I1
sS'UNK'
p7
I10
sS'religious'
p8
I0
sS'study'
p9
I9
sS'landscape'
p10
I2
sS'still-life'
p11
I5
s.